target datalayout = "e-m:e-p270:32:32-p271:32:32-p272:64:64-i64:64-i128:128-f80:128-n8:16:32:64-S128"
target triple = "x86_64-pc-linux-gnu"

%struct.PyVarObject = type { %struct._object, i64 }
%struct._object = type { %union.anon, ptr }
%union.anon = type { i64 }
%struct.PyTupleObject = type { %struct.PyVarObject, [1 x ptr] }

@.str.12 = private unnamed_addr constant [6 x i8] c"index\00", align 1
@PyExc_ValueError = external global ptr, align 8
@.str.18 = private unnamed_addr constant [31 x i8] c"tuple.index(x): x not in tuple\00", align 1

; Function Attrs: inlinehint nounwind uwtable
define internal i64 @Py_SIZE(ptr noundef %0) #2 {
  %2 = alloca ptr, align 8
  store ptr %0, ptr %2, align 8, !tbaa !10
  %3 = load ptr, ptr %2, align 8, !tbaa !10
  %4 = getelementptr inbounds nuw %struct.PyVarObject, ptr %3, i32 0, i32 1
  %5 = load i64, ptr %4, align 8, !tbaa !108
  ret i64 %5
}

; Function Attrs: nounwind uwtable
define internal ptr @tuple_index_impl(ptr noundef %0, ptr noundef %1, i64 noundef %2, i64 noundef %3) #0 {
  %5 = alloca ptr, align 8
  %6 = alloca ptr, align 8
  %7 = alloca ptr, align 8
  %8 = alloca i64, align 8
  %9 = alloca i64, align 8
  %10 = alloca i64, align 8
  %11 = alloca i32, align 4
  %12 = alloca i32, align 4
  store ptr %0, ptr %6, align 8, !tbaa !8
  store ptr %1, ptr %7, align 8, !tbaa !10
  store i64 %2, ptr %8, align 8, !tbaa !4
  store i64 %3, ptr %9, align 8, !tbaa !4
  call void @llvm.lifetime.start.p0(i64 8, ptr %10) #9
  %13 = load i64, ptr %8, align 8, !tbaa !4
  %14 = icmp slt i64 %13, 0
  br i1 %14, label %15, label %24

15:                                               ; preds = %4
  %16 = load ptr, ptr %6, align 8, !tbaa !8
  %17 = call i64 @Py_SIZE(ptr noundef %16)
  %18 = load i64, ptr %8, align 8, !tbaa !4
  %19 = add i64 %18, %17
  store i64 %19, ptr %8, align 8, !tbaa !4
  %20 = load i64, ptr %8, align 8, !tbaa !4
  %21 = icmp slt i64 %20, 0
  br i1 %21, label %22, label %23

22:                                               ; preds = %15
  store i64 0, ptr %8, align 8, !tbaa !4
  br label %23

23:                                               ; preds = %22, %15
  br label %24

24:                                               ; preds = %23, %4
  %25 = load i64, ptr %9, align 8, !tbaa !4
  %26 = icmp slt i64 %25, 0
  br i1 %26, label %27, label %32

27:                                               ; preds = %24
  %28 = load ptr, ptr %6, align 8, !tbaa !8
  %29 = call i64 @Py_SIZE(ptr noundef %28)
  %30 = load i64, ptr %9, align 8, !tbaa !4
  %31 = add i64 %30, %29
  store i64 %31, ptr %9, align 8, !tbaa !4
  br label %41

32:                                               ; preds = %24
  %33 = load i64, ptr %9, align 8, !tbaa !4
  %34 = load ptr, ptr %6, align 8, !tbaa !8
  %35 = call i64 @Py_SIZE(ptr noundef %34)
  %36 = icmp sgt i64 %33, %35
  br i1 %36, label %37, label %40

37:                                               ; preds = %32
  %38 = load ptr, ptr %6, align 8, !tbaa !8
  %39 = call i64 @Py_SIZE(ptr noundef %38)
  store i64 %39, ptr %9, align 8, !tbaa !4
  br label %40

40:                                               ; preds = %37, %32
  br label %41

41:                                               ; preds = %40, %27
  %42 = load i64, ptr %8, align 8, !tbaa !4
  store i64 %42, ptr %10, align 8, !tbaa !4
  br label %43

43:                                               ; preds = %69, %41
  %44 = load i64, ptr %10, align 8, !tbaa !4
  %45 = load i64, ptr %9, align 8, !tbaa !4
  %46 = icmp slt i64 %44, %45
  br i1 %46, label %47, label %72

47:                                               ; preds = %43
  call void @llvm.lifetime.start.p0(i64 4, ptr %11) #9
  %48 = load ptr, ptr %6, align 8, !tbaa !8
  %49 = getelementptr inbounds nuw %struct.PyTupleObject, ptr %48, i32 0, i32 1
  %50 = load i64, ptr %10, align 8, !tbaa !4
  %51 = getelementptr [1 x ptr], ptr %49, i64 0, i64 %50
  %52 = load ptr, ptr %51, align 8, !tbaa !10
  %53 = load ptr, ptr %7, align 8, !tbaa !10
  %54 = call i32 @PyObject_RichCompareBool(ptr noundef %52, ptr noundef %53, i32 noundef 2)
  store i32 %54, ptr %11, align 4, !tbaa !125
  %55 = load i32, ptr %11, align 4, !tbaa !125
  %56 = icmp sgt i32 %55, 0
  br i1 %56, label %57, label %60

57:                                               ; preds = %47
  %58 = load i64, ptr %10, align 8, !tbaa !4
  %59 = call ptr @PyLong_FromSsize_t(i64 noundef %58)
  store ptr %59, ptr %5, align 8
  store i32 1, ptr %12, align 4
  br label %66

60:                                               ; preds = %47
  %61 = load i32, ptr %11, align 4, !tbaa !125
  %62 = icmp slt i32 %61, 0
  br i1 %62, label %63, label %64

63:                                               ; preds = %60
  store ptr null, ptr %5, align 8
  store i32 1, ptr %12, align 4
  br label %66

64:                                               ; preds = %60
  br label %65

65:                                               ; preds = %64
  store i32 0, ptr %12, align 4
  br label %66

66:                                               ; preds = %65, %63, %57
  call void @llvm.lifetime.end.p0(i64 4, ptr %11) #9
  %67 = load i32, ptr %12, align 4
  switch i32 %67, label %74 [
    i32 0, label %68
  ]

68:                                               ; preds = %66
  br label %69

69:                                               ; preds = %68
  %70 = load i64, ptr %10, align 8, !tbaa !4
  %71 = add i64 %70, 1
  store i64 %71, ptr %10, align 8, !tbaa !4
  br label %43, !llvm.loop !165

72:                                               ; preds = %43
  %73 = load ptr, ptr @PyExc_ValueError, align 8, !tbaa !10
  call void @PyErr_SetString(ptr noundef %73, ptr noundef @.str.18)
  store ptr null, ptr %5, align 8
  store i32 1, ptr %12, align 4
  br label %74

74:                                               ; preds = %72, %66
  call void @llvm.lifetime.end.p0(i64 8, ptr %10) #9
  %75 = load ptr, ptr %5, align 8
  ret ptr %75
}

; Function Attrs: nounwind uwtable
define internal ptr @tuple_index(ptr noundef %0, ptr noundef %1, i64 noundef %2) #0 {
  %4 = alloca ptr, align 8
  %5 = alloca ptr, align 8
  %6 = alloca i64, align 8
  %7 = alloca ptr, align 8
  %8 = alloca ptr, align 8
  %9 = alloca i64, align 8
  %10 = alloca i64, align 8
  store ptr %0, ptr %4, align 8, !tbaa !10
  store ptr %1, ptr %5, align 8, !tbaa !109
  store i64 %2, ptr %6, align 8, !tbaa !4
  call void @llvm.lifetime.start.p0(i64 8, ptr %7) #9
  store ptr null, ptr %7, align 8, !tbaa !10
  call void @llvm.lifetime.start.p0(i64 8, ptr %8) #9
  call void @llvm.lifetime.start.p0(i64 8, ptr %9) #9
  store i64 0, ptr %9, align 8, !tbaa !4
  call void @llvm.lifetime.start.p0(i64 8, ptr %10) #9
  store i64 9223372036854775807, ptr %10, align 8, !tbaa !4
  %11 = load i64, ptr %6, align 8, !tbaa !4
  %12 = icmp sle i64 1, %11
  br i1 %12, label %13, label %16

13:                                               ; preds = %3
  %14 = load i64, ptr %6, align 8, !tbaa !4
  %15 = icmp sle i64 %14, 3
  br i1 %15, label %21, label %16

16:                                               ; preds = %13, %3
  %17 = load i64, ptr %6, align 8, !tbaa !4
  %18 = call i32 @_PyArg_CheckPositional(ptr noundef @.str.12, i64 noundef %17, i64 noundef 1, i64 noundef 3)
  %19 = icmp ne i32 %18, 0
  br i1 %19, label %21, label %20

20:                                               ; preds = %16
  br label %53

21:                                               ; preds = %16, %13
  %22 = load ptr, ptr %5, align 8, !tbaa !109
  %23 = getelementptr ptr, ptr %22, i64 0
  %24 = load ptr, ptr %23, align 8, !tbaa !10
  store ptr %24, ptr %8, align 8, !tbaa !10
  %25 = load i64, ptr %6, align 8, !tbaa !4
  %26 = icmp slt i64 %25, 2
  br i1 %26, label %27, label %28

27:                                               ; preds = %21
  br label %47

28:                                               ; preds = %21
  %29 = load ptr, ptr %5, align 8, !tbaa !109
  %30 = getelementptr ptr, ptr %29, i64 1
  %31 = load ptr, ptr %30, align 8, !tbaa !10
  %32 = call i32 @_PyEval_SliceIndexNotNone(ptr noundef %31, ptr noundef %9)
  %33 = icmp ne i32 %32, 0
  br i1 %33, label %35, label %34

34:                                               ; preds = %28
  br label %53

35:                                               ; preds = %28
  %36 = load i64, ptr %6, align 8, !tbaa !4
  %37 = icmp slt i64 %36, 3
  br i1 %37, label %38, label %39

38:                                               ; preds = %35
  br label %47

39:                                               ; preds = %35
  %40 = load ptr, ptr %5, align 8, !tbaa !109
  %41 = getelementptr ptr, ptr %40, i64 2
  %42 = load ptr, ptr %41, align 8, !tbaa !10
  %43 = call i32 @_PyEval_SliceIndexNotNone(ptr noundef %42, ptr noundef %10)
  %44 = icmp ne i32 %43, 0
  br i1 %44, label %46, label %45

45:                                               ; preds = %39
  br label %53

46:                                               ; preds = %39
  br label %47

47:                                               ; preds = %46, %38, %27
  %48 = load ptr, ptr %4, align 8, !tbaa !10
  %49 = load ptr, ptr %8, align 8, !tbaa !10
  %50 = load i64, ptr %9, align 8, !tbaa !4
  %51 = load i64, ptr %10, align 8, !tbaa !4
  %52 = call ptr @tuple_index_impl(ptr noundef %48, ptr noundef %49, i64 noundef %50, i64 noundef %51)
  store ptr %52, ptr %7, align 8, !tbaa !10
  br label %53

53:                                               ; preds = %47, %45, %34, %20
  %54 = load ptr, ptr %7, align 8, !tbaa !10
  call void @llvm.lifetime.end.p0(i64 8, ptr %10) #9
  call void @llvm.lifetime.end.p0(i64 8, ptr %9) #9
  call void @llvm.lifetime.end.p0(i64 8, ptr %8) #9
  call void @llvm.lifetime.end.p0(i64 8, ptr %7) #9
  ret ptr %54
}