; Function Attrs: nounwind uwtable
define internal ptr @tuple_index(ptr noundef readonly captures(none) %0, ptr noundef readonly captures(none) %1, i64 noundef %2) #0 {
  %4 = alloca i64, align 8
  %5 = alloca i64, align 8
  call void @llvm.lifetime.start.p0(i64 8, ptr nonnull %4) #9
  store i64 0, ptr %4, align 8, !tbaa !146
  call void @llvm.lifetime.start.p0(i64 8, ptr nonnull %5) #9
  store i64 9223372036854775807, ptr %5, align 8, !tbaa !146
  %6 = add i64 %2, -1
  %or.cond = icmp ult i64 %6, 3
  br i1 %or.cond, label %9, label %7

7:                                                ; preds = %3
  %8 = tail call i32 @_PyArg_CheckPositional(ptr noundef nonnull @.str.12, i64 noundef %2, i64 noundef 1, i64 noundef 3) #9
  %.not = icmp eq i32 %8, 0
  br i1 %.not, label %tuple_index_impl.exit, label %9

9:                                                ; preds = %3, %7
  %10 = load ptr, ptr %1, align 8, !tbaa !25
  %11 = icmp slt i64 %2, 2
  br i1 %11, label %._crit_edge18, label %12

12:                                               ; preds = %9
  %13 = getelementptr i8, ptr %1, i64 8
  %14 = load ptr, ptr %13, align 8, !tbaa !25
  %15 = call i32 @_PyEval_SliceIndexNotNone(ptr noundef %14, ptr noundef nonnull %4) #9
  %.not12 = icmp eq i32 %15, 0
  br i1 %.not12, label %tuple_index_impl.exit, label %16

16:                                               ; preds = %12
  %17 = icmp eq i64 %2, 2
  br i1 %17, label %._crit_edge18, label %18

18:                                               ; preds = %16
  %19 = getelementptr i8, ptr %1, i64 16
  %20 = load ptr, ptr %19, align 8, !tbaa !25
  %21 = call i32 @_PyEval_SliceIndexNotNone(ptr noundef %20, ptr noundef nonnull %5) #9
  %.not13 = icmp eq i32 %21, 0
  br i1 %.not13, label %tuple_index_impl.exit, label %._crit_edge

._crit_edge:                                      ; preds = %18
  %.pre = load i64, ptr %5, align 8, !tbaa !146
  br label %._crit_edge18

._crit_edge18:                                    ; preds = %._crit_edge, %16, %9
  %22 = phi i64 [ %.pre, %._crit_edge ], [ 9223372036854775807, %16 ], [ 9223372036854775807, %9 ]
  %23 = load i64, ptr %4, align 8, !tbaa !146
  %24 = icmp slt i64 %23, 0
  %25 = getelementptr i8, ptr %0, i64 16
  %.val32.i = load i64, ptr %25, align 8, !tbaa !107
  %26 = add i64 %.val32.i, %23
  %spec.store.select.i = call i64 @llvm.smax.i64(i64 %26, i64 0)
  %.024.i = select i1 %24, i64 %spec.store.select.i, i64 %23
  %27 = icmp slt i64 %22, 0
  %28 = add i64 %.val32.i, %22
  %spec.select.i = call i64 @llvm.smin.i64(i64 %22, i64 %.val32.i)
  %.023.i = select i1 %27, i64 %28, i64 %spec.select.i
  %29 = icmp slt i64 %.024.i, %.023.i
  br i1 %29, label %.lr.ph.i, label %._crit_edge.i

.lr.ph.i:                                         ; preds = %._crit_edge18
  %30 = getelementptr inbounds nuw i8, ptr %0, i64 24
  br label %31

31:                                               ; preds = %38, %.lr.ph.i
  %.02237.i = phi i64 [ %.024.i, %.lr.ph.i ], [ %39, %38 ]
  %32 = getelementptr [1 x ptr], ptr %30, i64 0, i64 %.02237.i
  %33 = load ptr, ptr %32, align 8, !tbaa !25
  %34 = call i32 @PyObject_RichCompareBool(ptr noundef %33, ptr noundef %10, i32 noundef 2) #9
  %35 = icmp sgt i32 %34, 0
  br i1 %35, label %.thread.i, label %37

.thread.i:                                        ; preds = %31
  %36 = call ptr @PyLong_FromSsize_t(i64 noundef %.02237.i) #9
  br label %tuple_index_impl.exit

37:                                               ; preds = %31
  %.not.i = icmp eq i32 %34, 0
  br i1 %.not.i, label %38, label %tuple_index_impl.exit

38:                                               ; preds = %37
  %39 = add nuw i64 %.02237.i, 1
  %exitcond.not.i = icmp eq i64 %39, %.023.i
  br i1 %exitcond.not.i, label %._crit_edge.i, label %31, !llvm.loop !148

._crit_edge.i:                                    ; preds = %38, %._crit_edge18
  %40 = load ptr, ptr @PyExc_ValueError, align 8, !tbaa !25
  call void @PyErr_SetString(ptr noundef %40, ptr noundef nonnull @.str.18) #9
  br label %tuple_index_impl.exit

tuple_index_impl.exit:                            ; preds = %37, %._crit_edge.i, %.thread.i, %18, %12, %7
  %.0 = phi ptr [ null, %18 ], [ null, %12 ], [ null, %7 ], [ null, %._crit_edge.i ], [ %36, %.thread.i ], [ null, %37 ]
  call void @llvm.lifetime.end.p0(i64 8, ptr nonnull %5) #9
  call void @llvm.lifetime.end.p0(i64 8, ptr nonnull %4) #9
  ret ptr %.0
}